target datalayout = "e-m:e-p270:32:32-p271:32:32-p272:64:64-i64:64-i128:128-f80:128-n8:16:32:64-S128"
target triple = "x86_64-pc-linux-gnu"

; Function Attrs: nounwind uwtable
define double @max_absf(i32 noundef %0, ptr noundef %1) #0 {
  %3 = alloca i32, align 4
  %4 = alloca ptr, align 8
  %5 = alloca i32, align 4
  %6 = alloca float, align 4
  store i32 %0, ptr %3, align 4, !tbaa !8
  store ptr %1, ptr %4, align 8, !tbaa !40
  call void @llvm.lifetime.start.p0(i64 4, ptr %5) #8
  call void @llvm.lifetime.start.p0(i64 4, ptr %6) #8
  store float 0xC6293E5940000000, ptr %6, align 4, !tbaa !43
  store i32 0, ptr %5, align 4, !tbaa !8
  br label %7

7:                                                ; preds = %20, %2
  %8 = load i32, ptr %5, align 4, !tbaa !8
  %9 = load i32, ptr %3, align 4, !tbaa !8
  %10 = icmp slt i32 %8, %9
  br i1 %10, label %11, label %23

11:                                               ; preds = %7
  %12 = load float, ptr %6, align 4, !tbaa !43
  %13 = load ptr, ptr %4, align 8, !tbaa !40
  %14 = load i32, ptr %5, align 4, !tbaa !8
  %15 = sext i32 %14 to i64
  %16 = getelementptr inbounds float, ptr %13, i64 %15
  %17 = load float, ptr %16, align 4, !tbaa !43
  %18 = call float @llvm.fabs.f32(float %17)
  %19 = call float @llvm.maxnum.f32(float %12, float %18)
  store float %19, ptr %6, align 4, !tbaa !43
  br label %20

20:                                               ; preds = %11
  %21 = load i32, ptr %5, align 4, !tbaa !8
  %22 = add nsw i32 %21, 1
  store i32 %22, ptr %5, align 4, !tbaa !8
  br label %7, !llvm.loop !88

23:                                               ; preds = %7
  %24 = load float, ptr %6, align 4, !tbaa !43
  %25 = fpext float %24 to double
  call void @llvm.lifetime.end.p0(i64 4, ptr %6) #8
  call void @llvm.lifetime.end.p0(i64 4, ptr %5) #8
  ret double %25
}