; Function Attrs: nofree norecurse nosync nounwind memory(argmem: read) uwtable
define double @max_absf(i32 noundef %0, ptr noundef readonly captures(none) %1) local_unnamed_addr #2 {
  %3 = icmp sgt i32 %0, 0
  br i1 %3, label %.lr.ph.preheader, label %._crit_edge

.lr.ph.preheader:                                 ; preds = %2
  %wide.trip.count = zext nneg i32 %0 to i64
  br label %.lr.ph

.lr.ph:                                           ; preds = %.lr.ph.preheader, %.lr.ph
  %indvars.iv = phi i64 [ 0, %.lr.ph.preheader ], [ %indvars.iv.next, %.lr.ph ]
  %.08 = phi float [ 0xC6293E5940000000, %.lr.ph.preheader ], [ %7, %.lr.ph ]
  %4 = getelementptr inbounds nuw float, ptr %1, i64 %indvars.iv
  %5 = load float, ptr %4, align 4, !tbaa !35
  %6 = tail call float @llvm.fabs.f32(float %5)
  %7 = tail call float @llvm.maxnum.f32(float %.08, float %6)
  %indvars.iv.next = add nuw nsw i64 %indvars.iv, 1
  %exitcond.not = icmp eq i64 %indvars.iv.next, %wide.trip.count
  br i1 %exitcond.not, label %._crit_edge.loopexit, label %.lr.ph, !llvm.loop !80

._crit_edge.loopexit:                             ; preds = %.lr.ph
  %8 = fpext float %7 to double
  br label %._crit_edge

._crit_edge:                                      ; preds = %._crit_edge.loopexit, %2
  %.0.lcssa = phi double [ 0xC6293E5940000000, %2 ], [ %8, %._crit_edge.loopexit ]
  ret double %.0.lcssa
}